; Function Attrs: mustprogress uwtable
define void @_ZN7rocksdb16MetaIndexBuilder3AddERKNSt7__cxx1112basic_stringIcSt11char_traitsIcESaIcEEERKNS_11BlockHandleE(ptr noundef nonnull align 8 dereferenceable(56) %this, ptr noundef nonnull align 8 dereferenceable(32) %key, ptr noundef nonnull align 8 dereferenceable(16) %handle) local_unnamed_addr #3 align 2 personality ptr @__gxx_personality_v0 {
entry:
  %__an.i.i = alloca %"struct.std::_Rb_tree<std::__cxx11::basic_string<char>, std::pair<const std::__cxx11::basic_string<char>, std::__cxx11::basic_string<char>>, std::_Select1st<std::pair<const std::__cxx11::basic_string<char>, std::__cxx11::basic_string<char>>>, rocksdb::stl_wrappers::LessOfComparator>::_Alloc_node", align 8
  %handle_encoding = alloca %"class.std::__cxx11::basic_string", align 8
  %ref.tmp = alloca %"struct.std::pair.18", align 8
  call void @_ZNSt7__cxx1112basic_stringIcSt11char_traitsIcESaIcEEC1Ev(ptr noundef nonnull align 8 dereferenceable(32) %handle_encoding) #20
  invoke void @_ZNK7rocksdb11BlockHandle8EncodeToEPNSt7__cxx1112basic_stringIcSt11char_traitsIcESaIcEEE(ptr noundef nonnull align 8 dereferenceable(16) %handle, ptr noundef nonnull %handle_encoding)
          to label %invoke.cont unwind label %lpad

invoke.cont:                                      ; preds = %entry
  invoke void @_ZNSt7__cxx1112basic_stringIcSt11char_traitsIcESaIcEEC1ERKS4_(ptr noundef nonnull align 8 dereferenceable(32) %ref.tmp, ptr noundef nonnull align 8 dereferenceable(32) %key)
          to label %.noexc unwind label %lpad

.noexc:                                           ; preds = %invoke.cont
  %second.i = getelementptr inbounds i8, ptr %ref.tmp, i64 32
  invoke void @_ZNSt7__cxx1112basic_stringIcSt11char_traitsIcESaIcEEC1ERKS4_(ptr noundef nonnull align 8 dereferenceable(32) %second.i, ptr noundef nonnull align 8 dereferenceable(32) %handle_encoding)
          to label %invoke.cont2 unwind label %lpad.i

lpad.i:                                           ; preds = %.noexc
  %0 = landingpad { ptr, i32 }
          cleanup
  call void @_ZNSt7__cxx1112basic_stringIcSt11char_traitsIcESaIcEED1Ev(ptr noundef nonnull align 8 dereferenceable(32) %ref.tmp) #20
  br label %ehcleanup

invoke.cont2:                                     ; preds = %.noexc
  call void @llvm.lifetime.start.p0(i64 8, ptr nonnull %__an.i.i)
  %call2.i.i2 = invoke { ptr, ptr } @_ZNSt8_Rb_treeINSt7__cxx1112basic_stringIcSt11char_traitsIcESaIcEEESt4pairIKS5_S5_ESt10_Select1stIS8_EN7rocksdb12stl_wrappers16LessOfComparatorESaIS8_EE24_M_get_insert_unique_posERS7_(ptr noundef nonnull align 8 dereferenceable(48) %this, ptr noundef nonnull align 8 dereferenceable(32) %ref.tmp)
          to label %call2.i.i.noexc unwind label %lpad3

call2.i.i.noexc:                                  ; preds = %invoke.cont2
  %1 = extractvalue { ptr, ptr } %call2.i.i2, 1
  %tobool.not.i.i = icmp eq ptr %1, null
  br i1 %tobool.not.i.i, label %invoke.cont4, label %if.then.i.i

if.then.i.i:                                      ; preds = %call2.i.i.noexc
  %2 = extractvalue { ptr, ptr } %call2.i.i2, 0
  store ptr %this, ptr %__an.i.i, align 8
  %call5.i.i3 = invoke ptr @_ZNSt8_Rb_treeINSt7__cxx1112basic_stringIcSt11char_traitsIcESaIcEEESt4pairIKS5_S5_ESt10_Select1stIS8_EN7rocksdb12stl_wrappers16LessOfComparatorESaIS8_EE10_M_insert_IS8_NSF_11_Alloc_nodeEEESt17_Rb_tree_iteratorIS8_EPSt18_Rb_tree_node_baseSL_OT_RT0_(ptr noundef nonnull align 8 dereferenceable(48) %this, ptr noundef %2, ptr noundef nonnull %1, ptr noundef nonnull align 8 dereferenceable(64) %ref.tmp, ptr noundef nonnull align 8 dereferenceable(8) %__an.i.i)
          to label %invoke.cont4 unwind label %lpad3

invoke.cont4:                                     ; preds = %call2.i.i.noexc, %if.then.i.i
  call void @llvm.lifetime.end.p0(i64 8, ptr nonnull %__an.i.i)
  call void @_ZNSt7__cxx1112basic_stringIcSt11char_traitsIcESaIcEED1Ev(ptr noundef nonnull align 8 dereferenceable(32) %second.i) #20
  call void @_ZNSt7__cxx1112basic_stringIcSt11char_traitsIcESaIcEED1Ev(ptr noundef nonnull align 8 dereferenceable(32) %ref.tmp) #20
  call void @_ZNSt7__cxx1112basic_stringIcSt11char_traitsIcESaIcEED1Ev(ptr noundef nonnull align 8 dereferenceable(32) %handle_encoding) #20
  ret void

lpad:                                             ; preds = %invoke.cont, %entry
  %3 = landingpad { ptr, i32 }
          cleanup
  br label %ehcleanup

lpad3:                                            ; preds = %if.then.i.i, %invoke.cont2
  %4 = landingpad { ptr, i32 }
          cleanup
  call void @_ZNSt7__cxx1112basic_stringIcSt11char_traitsIcESaIcEED1Ev(ptr noundef nonnull align 8 dereferenceable(32) %second.i) #20
  call void @_ZNSt7__cxx1112basic_stringIcSt11char_traitsIcESaIcEED1Ev(ptr noundef nonnull align 8 dereferenceable(32) %ref.tmp) #20
  br label %ehcleanup

ehcleanup:                                        ; preds = %lpad, %lpad.i, %lpad3
  %.pn = phi { ptr, i32 } [ %4, %lpad3 ], [ %3, %lpad ], [ %0, %lpad.i ]
  call void @_ZNSt7__cxx1112basic_stringIcSt11char_traitsIcESaIcEED1Ev(ptr noundef nonnull align 8 dereferenceable(32) %handle_encoding) #20
  resume { ptr, i32 } %.pn
}